; Function Attrs: nounwind uwtable
define dso_local noundef i32 @onig_names_free(ptr noundef captures(none) %0) local_unnamed_addr #2 {
  %2 = getelementptr i8, ptr %0, i64 128
  %.val = load ptr, ptr %2, align 8, !tbaa !27
  %.not.i = icmp eq ptr %.val, null
  br i1 %.not.i, label %names_clear.exit.thread, label %names_clear.exit

names_clear.exit:                                 ; preds = %1
  %3 = tail call i32 @onig_st_foreach(ptr noundef nonnull %.val, ptr noundef nonnull @i_free_name_entry, i64 noundef 0) #25
  %.pr = load ptr, ptr %2, align 8, !tbaa !27
  %.not = icmp eq ptr %.pr, null
  br i1 %.not, label %names_clear.exit.thread, label %4

4:                                                ; preds = %names_clear.exit
  tail call void @onig_st_free_table(ptr noundef nonnull %.pr) #25
  br label %names_clear.exit.thread

names_clear.exit.thread:                          ; preds = %1, %4, %names_clear.exit
  store ptr null, ptr %2, align 8, !tbaa !27
  ret i32 0
}